target datalayout = "e-m:e-p270:32:32-p271:32:32-p272:64:64-i64:64-i128:128-f80:128-n8:16:32:64-S128"
target triple = "x86_64-pc-linux-gnu"

%struct.stats_state = type { i64, i64, i64, i64, float, i32, i32, i32, i32, i8, i8, i8, i8 }
%struct.stats = type { i64, i64, i64, i64, i64, i64, i64, i64, i64, i64, i64, i64, i64, i64, i64, i64, i64, i64, i64, i64, i64, i64, i64, i64, %struct.timeval, i64, i64 }
%struct.timeval = type { i64, i64 }
%struct.extstore_stats = type { i64, i64, i64, i64, i64, i64, i64, i64, i64, i64, i64, i64, i64, i64, i64, i64, i64, ptr }

@ext_storage = external global ptr, align 8
@.str.2 = private unnamed_addr constant [5 x i8] c"%llu\00", align 1
@.str.7 = private unnamed_addr constant [25 x i8] c"extstore_memory_pressure\00", align 1
@.str.8 = private unnamed_addr constant [5 x i8] c"%.2f\00", align 1
@stats_state = external global %struct.stats_state, align 8
@.str.9 = private unnamed_addr constant [22 x i8] c"extstore_compact_lost\00", align 1
@stats = external global %struct.stats, align 8
@.str.10 = private unnamed_addr constant [25 x i8] c"extstore_compact_rescues\00", align 1
@.str.11 = private unnamed_addr constant [27 x i8] c"extstore_compact_resc_cold\00", align 1
@.str.12 = private unnamed_addr constant [26 x i8] c"extstore_compact_resc_old\00", align 1
@.str.13 = private unnamed_addr constant [25 x i8] c"extstore_compact_skipped\00", align 1
@.str.14 = private unnamed_addr constant [21 x i8] c"extstore_page_allocs\00", align 1
@.str.15 = private unnamed_addr constant [24 x i8] c"extstore_page_evictions\00", align 1
@.str.16 = private unnamed_addr constant [23 x i8] c"extstore_page_reclaims\00", align 1
@.str.17 = private unnamed_addr constant [20 x i8] c"extstore_pages_free\00", align 1
@.str.18 = private unnamed_addr constant [20 x i8] c"extstore_pages_used\00", align 1
@.str.19 = private unnamed_addr constant [25 x i8] c"extstore_objects_evicted\00", align 1
@.str.20 = private unnamed_addr constant [22 x i8] c"extstore_objects_read\00", align 1
@.str.21 = private unnamed_addr constant [25 x i8] c"extstore_objects_written\00", align 1
@.str.22 = private unnamed_addr constant [22 x i8] c"extstore_objects_used\00", align 1
@.str.23 = private unnamed_addr constant [23 x i8] c"extstore_bytes_evicted\00", align 1
@.str.24 = private unnamed_addr constant [23 x i8] c"extstore_bytes_written\00", align 1
@.str.25 = private unnamed_addr constant [20 x i8] c"extstore_bytes_read\00", align 1
@.str.26 = private unnamed_addr constant [20 x i8] c"extstore_bytes_used\00", align 1
@.str.27 = private unnamed_addr constant [26 x i8] c"extstore_bytes_fragmented\00", align 1
@.str.28 = private unnamed_addr constant [24 x i8] c"extstore_limit_maxbytes\00", align 1
@.str.29 = private unnamed_addr constant [18 x i8] c"extstore_io_queue\00", align 1

; Function Attrs: nounwind uwtable
define dso_local void @storage_stats(ptr noundef %0, ptr noundef %1) #0 {
  %3 = alloca ptr, align 8
  %4 = alloca ptr, align 8
  %5 = alloca %struct.extstore_stats, align 8
  store ptr %0, ptr %3, align 8, !tbaa !4
  store ptr %1, ptr %4, align 8, !tbaa !4
  call void @llvm.lifetime.start.p0(i64 144, ptr %5) #13
  %6 = load ptr, ptr @ext_storage, align 8, !tbaa !4
  %7 = icmp ne ptr %6, null
  br i1 %7, label %8, label %96

8:                                                ; preds = %2
  call void @STATS_LOCK()
  %9 = load ptr, ptr %3, align 8, !tbaa !4
  %10 = load ptr, ptr %4, align 8, !tbaa !4
  %11 = load float, ptr getelementptr inbounds nuw (%struct.stats_state, ptr @stats_state, i32 0, i32 4), align 8, !tbaa !31
  %12 = fpext float %11 to double
  call void (ptr, ptr, ptr, ptr, ...) @append_stat(ptr noundef @.str.7, ptr noundef %9, ptr noundef %10, ptr noundef @.str.8, double noundef %12)
  %13 = load ptr, ptr %3, align 8, !tbaa !4
  %14 = load ptr, ptr %4, align 8, !tbaa !4
  %15 = load i64, ptr getelementptr inbounds nuw (%struct.stats, ptr @stats, i32 0, i32 19), align 8, !tbaa !34
  call void (ptr, ptr, ptr, ptr, ...) @append_stat(ptr noundef @.str.9, ptr noundef %13, ptr noundef %14, ptr noundef @.str.2, i64 noundef %15)
  %16 = load ptr, ptr %3, align 8, !tbaa !4
  %17 = load ptr, ptr %4, align 8, !tbaa !4
  %18 = load i64, ptr getelementptr inbounds nuw (%struct.stats, ptr @stats, i32 0, i32 20), align 8, !tbaa !37
  call void (ptr, ptr, ptr, ptr, ...) @append_stat(ptr noundef @.str.10, ptr noundef %16, ptr noundef %17, ptr noundef @.str.2, i64 noundef %18)
  %19 = load ptr, ptr %3, align 8, !tbaa !4
  %20 = load ptr, ptr %4, align 8, !tbaa !4
  %21 = load i64, ptr getelementptr inbounds nuw (%struct.stats, ptr @stats, i32 0, i32 22), align 8, !tbaa !38
  call void (ptr, ptr, ptr, ptr, ...) @append_stat(ptr noundef @.str.11, ptr noundef %19, ptr noundef %20, ptr noundef @.str.2, i64 noundef %21)
  %22 = load ptr, ptr %3, align 8, !tbaa !4
  %23 = load ptr, ptr %4, align 8, !tbaa !4
  %24 = load i64, ptr getelementptr inbounds nuw (%struct.stats, ptr @stats, i32 0, i32 23), align 8, !tbaa !39
  call void (ptr, ptr, ptr, ptr, ...) @append_stat(ptr noundef @.str.12, ptr noundef %22, ptr noundef %23, ptr noundef @.str.2, i64 noundef %24)
  %25 = load ptr, ptr %3, align 8, !tbaa !4
  %26 = load ptr, ptr %4, align 8, !tbaa !4
  %27 = load i64, ptr getelementptr inbounds nuw (%struct.stats, ptr @stats, i32 0, i32 21), align 8, !tbaa !40
  call void (ptr, ptr, ptr, ptr, ...) @append_stat(ptr noundef @.str.13, ptr noundef %25, ptr noundef %26, ptr noundef @.str.2, i64 noundef %27)
  call void @STATS_UNLOCK()
  %28 = load ptr, ptr @ext_storage, align 8, !tbaa !4
  call void @extstore_get_stats(ptr noundef %28, ptr noundef %5)
  %29 = load ptr, ptr %3, align 8, !tbaa !4
  %30 = load ptr, ptr %4, align 8, !tbaa !4
  %31 = getelementptr inbounds nuw %struct.extstore_stats, ptr %5, i32 0, i32 0
  %32 = load i64, ptr %31, align 8, !tbaa !41
  call void (ptr, ptr, ptr, ptr, ...) @append_stat(ptr noundef @.str.14, ptr noundef %29, ptr noundef %30, ptr noundef @.str.2, i64 noundef %32)
  %33 = load ptr, ptr %3, align 8, !tbaa !4
  %34 = load ptr, ptr %4, align 8, !tbaa !4
  %35 = getelementptr inbounds nuw %struct.extstore_stats, ptr %5, i32 0, i32 2
  %36 = load i64, ptr %35, align 8, !tbaa !42
  call void (ptr, ptr, ptr, ptr, ...) @append_stat(ptr noundef @.str.15, ptr noundef %33, ptr noundef %34, ptr noundef @.str.2, i64 noundef %36)
  %37 = load ptr, ptr %3, align 8, !tbaa !4
  %38 = load ptr, ptr %4, align 8, !tbaa !4
  %39 = getelementptr inbounds nuw %struct.extstore_stats, ptr %5, i32 0, i32 3
  %40 = load i64, ptr %39, align 8, !tbaa !43
  call void (ptr, ptr, ptr, ptr, ...) @append_stat(ptr noundef @.str.16, ptr noundef %37, ptr noundef %38, ptr noundef @.str.2, i64 noundef %40)
  %41 = load ptr, ptr %3, align 8, !tbaa !4
  %42 = load ptr, ptr %4, align 8, !tbaa !4
  %43 = getelementptr inbounds nuw %struct.extstore_stats, ptr %5, i32 0, i32 5
  %44 = load i64, ptr %43, align 8, !tbaa !44
  call void (ptr, ptr, ptr, ptr, ...) @append_stat(ptr noundef @.str.17, ptr noundef %41, ptr noundef %42, ptr noundef @.str.2, i64 noundef %44)
  %45 = load ptr, ptr %3, align 8, !tbaa !4
  %46 = load ptr, ptr %4, align 8, !tbaa !4
  %47 = getelementptr inbounds nuw %struct.extstore_stats, ptr %5, i32 0, i32 6
  %48 = load i64, ptr %47, align 8, !tbaa !45
  call void (ptr, ptr, ptr, ptr, ...) @append_stat(ptr noundef @.str.18, ptr noundef %45, ptr noundef %46, ptr noundef @.str.2, i64 noundef %48)
  %49 = load ptr, ptr %3, align 8, !tbaa !4
  %50 = load ptr, ptr %4, align 8, !tbaa !4
  %51 = getelementptr inbounds nuw %struct.extstore_stats, ptr %5, i32 0, i32 7
  %52 = load i64, ptr %51, align 8, !tbaa !46
  call void (ptr, ptr, ptr, ptr, ...) @append_stat(ptr noundef @.str.19, ptr noundef %49, ptr noundef %50, ptr noundef @.str.2, i64 noundef %52)
  %53 = load ptr, ptr %3, align 8, !tbaa !4
  %54 = load ptr, ptr %4, align 8, !tbaa !4
  %55 = getelementptr inbounds nuw %struct.extstore_stats, ptr %5, i32 0, i32 8
  %56 = load i64, ptr %55, align 8, !tbaa !47
  call void (ptr, ptr, ptr, ptr, ...) @append_stat(ptr noundef @.str.20, ptr noundef %53, ptr noundef %54, ptr noundef @.str.2, i64 noundef %56)
  %57 = load ptr, ptr %3, align 8, !tbaa !4
  %58 = load ptr, ptr %4, align 8, !tbaa !4
  %59 = getelementptr inbounds nuw %struct.extstore_stats, ptr %5, i32 0, i32 9
  %60 = load i64, ptr %59, align 8, !tbaa !48
  call void (ptr, ptr, ptr, ptr, ...) @append_stat(ptr noundef @.str.21, ptr noundef %57, ptr noundef %58, ptr noundef @.str.2, i64 noundef %60)
  %61 = load ptr, ptr %3, align 8, !tbaa !4
  %62 = load ptr, ptr %4, align 8, !tbaa !4
  %63 = getelementptr inbounds nuw %struct.extstore_stats, ptr %5, i32 0, i32 10
  %64 = load i64, ptr %63, align 8, !tbaa !49
  call void (ptr, ptr, ptr, ptr, ...) @append_stat(ptr noundef @.str.22, ptr noundef %61, ptr noundef %62, ptr noundef @.str.2, i64 noundef %64)
  %65 = load ptr, ptr %3, align 8, !tbaa !4
  %66 = load ptr, ptr %4, align 8, !tbaa !4
  %67 = getelementptr inbounds nuw %struct.extstore_stats, ptr %5, i32 0, i32 11
  %68 = load i64, ptr %67, align 8, !tbaa !50
  call void (ptr, ptr, ptr, ptr, ...) @append_stat(ptr noundef @.str.23, ptr noundef %65, ptr noundef %66, ptr noundef @.str.2, i64 noundef %68)
  %69 = load ptr, ptr %3, align 8, !tbaa !4
  %70 = load ptr, ptr %4, align 8, !tbaa !4
  %71 = getelementptr inbounds nuw %struct.extstore_stats, ptr %5, i32 0, i32 12
  %72 = load i64, ptr %71, align 8, !tbaa !51
  call void (ptr, ptr, ptr, ptr, ...) @append_stat(ptr noundef @.str.24, ptr noundef %69, ptr noundef %70, ptr noundef @.str.2, i64 noundef %72)
  %73 = load ptr, ptr %3, align 8, !tbaa !4
  %74 = load ptr, ptr %4, align 8, !tbaa !4
  %75 = getelementptr inbounds nuw %struct.extstore_stats, ptr %5, i32 0, i32 13
  %76 = load i64, ptr %75, align 8, !tbaa !52
  call void (ptr, ptr, ptr, ptr, ...) @append_stat(ptr noundef @.str.25, ptr noundef %73, ptr noundef %74, ptr noundef @.str.2, i64 noundef %76)
  %77 = load ptr, ptr %3, align 8, !tbaa !4
  %78 = load ptr, ptr %4, align 8, !tbaa !4
  %79 = getelementptr inbounds nuw %struct.extstore_stats, ptr %5, i32 0, i32 14
  %80 = load i64, ptr %79, align 8, !tbaa !53
  call void (ptr, ptr, ptr, ptr, ...) @append_stat(ptr noundef @.str.26, ptr noundef %77, ptr noundef %78, ptr noundef @.str.2, i64 noundef %80)
  %81 = load ptr, ptr %3, align 8, !tbaa !4
  %82 = load ptr, ptr %4, align 8, !tbaa !4
  %83 = getelementptr inbounds nuw %struct.extstore_stats, ptr %5, i32 0, i32 15
  %84 = load i64, ptr %83, align 8, !tbaa !54
  call void (ptr, ptr, ptr, ptr, ...) @append_stat(ptr noundef @.str.27, ptr noundef %81, ptr noundef %82, ptr noundef @.str.2, i64 noundef %84)
  %85 = load ptr, ptr %3, align 8, !tbaa !4
  %86 = load ptr, ptr %4, align 8, !tbaa !4
  %87 = getelementptr inbounds nuw %struct.extstore_stats, ptr %5, i32 0, i32 1
  %88 = load i64, ptr %87, align 8, !tbaa !18
  %89 = getelementptr inbounds nuw %struct.extstore_stats, ptr %5, i32 0, i32 4
  %90 = load i64, ptr %89, align 8, !tbaa !55
  %91 = mul i64 %88, %90
  call void (ptr, ptr, ptr, ptr, ...) @append_stat(ptr noundef @.str.28, ptr noundef %85, ptr noundef %86, ptr noundef @.str.2, i64 noundef %91)
  %92 = load ptr, ptr %3, align 8, !tbaa !4
  %93 = load ptr, ptr %4, align 8, !tbaa !4
  %94 = getelementptr inbounds nuw %struct.extstore_stats, ptr %5, i32 0, i32 16
  %95 = load i64, ptr %94, align 8, !tbaa !56
  call void (ptr, ptr, ptr, ptr, ...) @append_stat(ptr noundef @.str.29, ptr noundef %92, ptr noundef %93, ptr noundef @.str.2, i64 noundef %95)
  br label %96

96:                                               ; preds = %8, %2
  call void @llvm.lifetime.end.p0(i64 144, ptr %5) #13
  ret void
}