; Function Attrs: nounwind uwtable
define dso_local void @storage_stats(ptr noundef %0, ptr noundef %1) local_unnamed_addr #0 {
  %3 = alloca %struct.extstore_stats, align 8
  call void @llvm.lifetime.start.p0(i64 144, ptr nonnull %3) #21
  %4 = load ptr, ptr @ext_storage, align 8, !tbaa !14
  %.not = icmp eq ptr %4, null
  br i1 %.not, label %48, label %5

5:                                                ; preds = %2
  tail call void @STATS_LOCK() #21
  %6 = load float, ptr getelementptr inbounds nuw (i8, ptr @stats_state, i64 32), align 8, !tbaa !29
  %7 = fpext float %6 to double
  tail call void (ptr, ptr, ptr, ptr, ...) @append_stat(ptr noundef nonnull @.str.7, ptr noundef %0, ptr noundef %1, ptr noundef nonnull @.str.8, double noundef %7) #21
  %8 = load i64, ptr getelementptr inbounds nuw (i8, ptr @stats, i64 152), align 8, !tbaa !32
  tail call void (ptr, ptr, ptr, ptr, ...) @append_stat(ptr noundef nonnull @.str.9, ptr noundef %0, ptr noundef %1, ptr noundef nonnull @.str.2, i64 noundef %8) #21
  %9 = load i64, ptr getelementptr inbounds nuw (i8, ptr @stats, i64 160), align 8, !tbaa !35
  tail call void (ptr, ptr, ptr, ptr, ...) @append_stat(ptr noundef nonnull @.str.10, ptr noundef %0, ptr noundef %1, ptr noundef nonnull @.str.2, i64 noundef %9) #21
  %10 = load i64, ptr getelementptr inbounds nuw (i8, ptr @stats, i64 176), align 8, !tbaa !36
  tail call void (ptr, ptr, ptr, ptr, ...) @append_stat(ptr noundef nonnull @.str.11, ptr noundef %0, ptr noundef %1, ptr noundef nonnull @.str.2, i64 noundef %10) #21
  %11 = load i64, ptr getelementptr inbounds nuw (i8, ptr @stats, i64 184), align 8, !tbaa !37
  tail call void (ptr, ptr, ptr, ptr, ...) @append_stat(ptr noundef nonnull @.str.12, ptr noundef %0, ptr noundef %1, ptr noundef nonnull @.str.2, i64 noundef %11) #21
  %12 = load i64, ptr getelementptr inbounds nuw (i8, ptr @stats, i64 168), align 8, !tbaa !38
  tail call void (ptr, ptr, ptr, ptr, ...) @append_stat(ptr noundef nonnull @.str.13, ptr noundef %0, ptr noundef %1, ptr noundef nonnull @.str.2, i64 noundef %12) #21
  tail call void @STATS_UNLOCK() #21
  %13 = load ptr, ptr @ext_storage, align 8, !tbaa !14
  call void @extstore_get_stats(ptr noundef %13, ptr noundef nonnull %3) #21
  %14 = load i64, ptr %3, align 8, !tbaa !39
  call void (ptr, ptr, ptr, ptr, ...) @append_stat(ptr noundef nonnull @.str.14, ptr noundef %0, ptr noundef %1, ptr noundef nonnull @.str.2, i64 noundef %14) #21
  %15 = getelementptr inbounds nuw i8, ptr %3, i64 16
  %16 = load i64, ptr %15, align 8, !tbaa !40
  call void (ptr, ptr, ptr, ptr, ...) @append_stat(ptr noundef nonnull @.str.15, ptr noundef %0, ptr noundef %1, ptr noundef nonnull @.str.2, i64 noundef %16) #21
  %17 = getelementptr inbounds nuw i8, ptr %3, i64 24
  %18 = load i64, ptr %17, align 8, !tbaa !41
  call void (ptr, ptr, ptr, ptr, ...) @append_stat(ptr noundef nonnull @.str.16, ptr noundef %0, ptr noundef %1, ptr noundef nonnull @.str.2, i64 noundef %18) #21
  %19 = getelementptr inbounds nuw i8, ptr %3, i64 40
  %20 = load i64, ptr %19, align 8, !tbaa !42
  call void (ptr, ptr, ptr, ptr, ...) @append_stat(ptr noundef nonnull @.str.17, ptr noundef %0, ptr noundef %1, ptr noundef nonnull @.str.2, i64 noundef %20) #21
  %21 = getelementptr inbounds nuw i8, ptr %3, i64 48
  %22 = load i64, ptr %21, align 8, !tbaa !43
  call void (ptr, ptr, ptr, ptr, ...) @append_stat(ptr noundef nonnull @.str.18, ptr noundef %0, ptr noundef %1, ptr noundef nonnull @.str.2, i64 noundef %22) #21
  %23 = getelementptr inbounds nuw i8, ptr %3, i64 56
  %24 = load i64, ptr %23, align 8, !tbaa !44
  call void (ptr, ptr, ptr, ptr, ...) @append_stat(ptr noundef nonnull @.str.19, ptr noundef %0, ptr noundef %1, ptr noundef nonnull @.str.2, i64 noundef %24) #21
  %25 = getelementptr inbounds nuw i8, ptr %3, i64 64
  %26 = load i64, ptr %25, align 8, !tbaa !45
  call void (ptr, ptr, ptr, ptr, ...) @append_stat(ptr noundef nonnull @.str.20, ptr noundef %0, ptr noundef %1, ptr noundef nonnull @.str.2, i64 noundef %26) #21
  %27 = getelementptr inbounds nuw i8, ptr %3, i64 72
  %28 = load i64, ptr %27, align 8, !tbaa !46
  call void (ptr, ptr, ptr, ptr, ...) @append_stat(ptr noundef nonnull @.str.21, ptr noundef %0, ptr noundef %1, ptr noundef nonnull @.str.2, i64 noundef %28) #21
  %29 = getelementptr inbounds nuw i8, ptr %3, i64 80
  %30 = load i64, ptr %29, align 8, !tbaa !47
  call void (ptr, ptr, ptr, ptr, ...) @append_stat(ptr noundef nonnull @.str.22, ptr noundef %0, ptr noundef %1, ptr noundef nonnull @.str.2, i64 noundef %30) #21
  %31 = getelementptr inbounds nuw i8, ptr %3, i64 88
  %32 = load i64, ptr %31, align 8, !tbaa !48
  call void (ptr, ptr, ptr, ptr, ...) @append_stat(ptr noundef nonnull @.str.23, ptr noundef %0, ptr noundef %1, ptr noundef nonnull @.str.2, i64 noundef %32) #21
  %33 = getelementptr inbounds nuw i8, ptr %3, i64 96
  %34 = load i64, ptr %33, align 8, !tbaa !49
  call void (ptr, ptr, ptr, ptr, ...) @append_stat(ptr noundef nonnull @.str.24, ptr noundef %0, ptr noundef %1, ptr noundef nonnull @.str.2, i64 noundef %34) #21
  %35 = getelementptr inbounds nuw i8, ptr %3, i64 104
  %36 = load i64, ptr %35, align 8, !tbaa !50
  call void (ptr, ptr, ptr, ptr, ...) @append_stat(ptr noundef nonnull @.str.25, ptr noundef %0, ptr noundef %1, ptr noundef nonnull @.str.2, i64 noundef %36) #21
  %37 = getelementptr inbounds nuw i8, ptr %3, i64 112
  %38 = load i64, ptr %37, align 8, !tbaa !51
  call void (ptr, ptr, ptr, ptr, ...) @append_stat(ptr noundef nonnull @.str.26, ptr noundef %0, ptr noundef %1, ptr noundef nonnull @.str.2, i64 noundef %38) #21
  %39 = getelementptr inbounds nuw i8, ptr %3, i64 120
  %40 = load i64, ptr %39, align 8, !tbaa !52
  call void (ptr, ptr, ptr, ptr, ...) @append_stat(ptr noundef nonnull @.str.27, ptr noundef %0, ptr noundef %1, ptr noundef nonnull @.str.2, i64 noundef %40) #21
  %41 = getelementptr inbounds nuw i8, ptr %3, i64 8
  %42 = load i64, ptr %41, align 8, !tbaa !16
  %43 = getelementptr inbounds nuw i8, ptr %3, i64 32
  %44 = load i64, ptr %43, align 8, !tbaa !53
  %45 = mul i64 %44, %42
  call void (ptr, ptr, ptr, ptr, ...) @append_stat(ptr noundef nonnull @.str.28, ptr noundef %0, ptr noundef %1, ptr noundef nonnull @.str.2, i64 noundef %45) #21
  %46 = getelementptr inbounds nuw i8, ptr %3, i64 128
  %47 = load i64, ptr %46, align 8, !tbaa !54
  call void (ptr, ptr, ptr, ptr, ...) @append_stat(ptr noundef nonnull @.str.29, ptr noundef %0, ptr noundef %1, ptr noundef nonnull @.str.2, i64 noundef %47) #21
  br label %48

48:                                               ; preds = %5, %2
  call void @llvm.lifetime.end.p0(i64 144, ptr nonnull %3) #21
  ret void
}